target datalayout = "e-m:e-p270:32:32-p271:32:32-p272:64:64-i64:64-i128:128-f80:128-n8:16:32:64-S128"
target triple = "x86_64-pc-linux-gnu"

; Function Attrs: nounwind uwtable
define i32 @Gls_ManParseOne(ptr noundef %0) #0 {
  %2 = alloca ptr, align 8
  %3 = alloca i32, align 4
  %4 = alloca ptr, align 8
  store ptr %0, ptr %2, align 8
  %5 = load ptr, ptr %2, align 8
  %6 = load ptr, ptr %5, align 8
  store ptr %6, ptr %4, align 8
  br label %7

7:                                                ; preds = %12, %1
  %8 = load ptr, ptr %4, align 8
  %9 = load i8, ptr %8, align 1
  %10 = sext i8 %9 to i32
  %11 = icmp eq i32 %10, 32
  br i1 %11, label %12, label %15

12:                                               ; preds = %7
  %13 = load ptr, ptr %4, align 8
  %14 = getelementptr inbounds i8, ptr %13, i32 1
  store ptr %14, ptr %4, align 8
  br label %7, !llvm.loop !8

15:                                               ; preds = %7
  %16 = load ptr, ptr %4, align 8
  %17 = load i8, ptr %16, align 1
  %18 = sext i8 %17 to i32
  %19 = icmp eq i32 %18, 45
  br i1 %19, label %20, label %21

20:                                               ; preds = %15
  store i32 -1, ptr %3, align 4
  br label %46

21:                                               ; preds = %15
  %22 = load ptr, ptr %4, align 8
  %23 = load i8, ptr %22, align 1
  %24 = sext i8 %23 to i32
  %25 = icmp eq i32 %24, 48
  br i1 %25, label %26, label %27

26:                                               ; preds = %21
  store i32 0, ptr %3, align 4
  br label %45

27:                                               ; preds = %21
  %28 = load ptr, ptr %4, align 8
  %29 = load i8, ptr %28, align 1
  %30 = sext i8 %29 to i32
  %31 = icmp eq i32 %30, 49
  br i1 %31, label %32, label %33

32:                                               ; preds = %27
  store i32 1, ptr %3, align 4
  br label %44

33:                                               ; preds = %27
  %34 = load ptr, ptr %4, align 8
  %35 = load i8, ptr %34, align 1
  %36 = sext i8 %35 to i32
  %37 = icmp eq i32 %36, 119
  br i1 %37, label %38, label %42

38:                                               ; preds = %33
  %39 = load ptr, ptr %4, align 8
  %40 = getelementptr inbounds i8, ptr %39, i32 1
  store ptr %40, ptr %4, align 8
  %41 = call i32 @atoi(ptr noundef %40) #13
  store i32 %41, ptr %3, align 4
  br label %43

42:                                               ; preds = %33
  br label %43

43:                                               ; preds = %42, %38
  br label %44

44:                                               ; preds = %43, %32
  br label %45

45:                                               ; preds = %44, %26
  br label %46

46:                                               ; preds = %45, %20
  br label %47

47:                                               ; preds = %66, %46
  %48 = load ptr, ptr %4, align 8
  %49 = load i8, ptr %48, align 1
  %50 = sext i8 %49 to i32
  %51 = icmp eq i32 %50, 45
  br i1 %51, label %64, label %52

52:                                               ; preds = %47
  %53 = load ptr, ptr %4, align 8
  %54 = load i8, ptr %53, align 1
  %55 = sext i8 %54 to i32
  %56 = icmp sge i32 %55, 48
  br i1 %56, label %57, label %62

57:                                               ; preds = %52
  %58 = load ptr, ptr %4, align 8
  %59 = load i8, ptr %58, align 1
  %60 = sext i8 %59 to i32
  %61 = icmp sle i32 %60, 57
  br label %62

62:                                               ; preds = %57, %52
  %63 = phi i1 [ false, %52 ], [ %61, %57 ]
  br label %64

64:                                               ; preds = %62, %47
  %65 = phi i1 [ true, %47 ], [ %63, %62 ]
  br i1 %65, label %66, label %69

66:                                               ; preds = %64
  %67 = load ptr, ptr %4, align 8
  %68 = getelementptr inbounds i8, ptr %67, i32 1
  store ptr %68, ptr %4, align 8
  br label %47, !llvm.loop !9

69:                                               ; preds = %64
  br label %70

70:                                               ; preds = %75, %69
  %71 = load ptr, ptr %4, align 8
  %72 = load i8, ptr %71, align 1
  %73 = sext i8 %72 to i32
  %74 = icmp eq i32 %73, 32
  br i1 %74, label %75, label %78

75:                                               ; preds = %70
  %76 = load ptr, ptr %4, align 8
  %77 = getelementptr inbounds i8, ptr %76, i32 1
  store ptr %77, ptr %4, align 8
  br label %70, !llvm.loop !10

78:                                               ; preds = %70
  %79 = load ptr, ptr %4, align 8
  %80 = load ptr, ptr %2, align 8
  store ptr %79, ptr %80, align 8
  %81 = load i32, ptr %3, align 4
  ret i32 %81
}