; Function Attrs: nofree nounwind memory(read, argmem: readwrite) uwtable
define i32 @Gls_ManParseOne(ptr noundef captures(none) %0) local_unnamed_addr #7 {
  %2 = load ptr, ptr %0, align 8
  br label %3

3:                                                ; preds = %5, %1
  %.0 = phi ptr [ %2, %1 ], [ %6, %5 ]
  %4 = load i8, ptr %.0, align 1
  switch i8 %4, label %.fold.split.loopexit [
    i8 32, label %5
    i8 119, label %7
    i8 48, label %.fold.split.loopexit36
    i8 49, label %.fold.split
  ]

5:                                                ; preds = %3
  %6 = getelementptr inbounds nuw i8, ptr %.0, i64 1
  br label %3, !llvm.loop !9

7:                                                ; preds = %3
  %8 = getelementptr inbounds nuw i8, ptr %.0, i64 1
  %9 = tail call i32 @atoi(ptr noundef nonnull %8) #26
  br label %.fold.split

.fold.split.loopexit:                             ; preds = %3
  br label %.fold.split

.fold.split.loopexit36:                           ; preds = %3
  br label %.fold.split

.fold.split:                                      ; preds = %3, %.fold.split.loopexit36, %.fold.split.loopexit, %7
  %.018 = phi i32 [ %9, %7 ], [ -1, %.fold.split.loopexit ], [ 0, %.fold.split.loopexit36 ], [ 1, %3 ]
  %.1 = phi ptr [ %8, %7 ], [ %.0, %.fold.split.loopexit ], [ %.0, %.fold.split.loopexit36 ], [ %.0, %3 ]
  br label %.critedge

.critedge:                                        ; preds = %.critedge, %.fold.split
  %.2 = phi ptr [ %.1, %.fold.split ], [ %13, %.critedge ]
  %10 = load i8, ptr %.2, align 1
  %11 = icmp eq i8 %10, 45
  %12 = add i8 %10, -48
  %or.cond = icmp ult i8 %12, 10
  %or.cond21 = or i1 %11, %or.cond
  %13 = getelementptr inbounds nuw i8, ptr %.2, i64 1
  br i1 %or.cond21, label %.critedge, label %.critedge2, !llvm.loop !10

.critedge2:                                       ; preds = %.critedge, %.critedge2
  %.3 = phi ptr [ %16, %.critedge2 ], [ %.2, %.critedge ]
  %14 = load i8, ptr %.3, align 1
  %15 = icmp eq i8 %14, 32
  %16 = getelementptr inbounds nuw i8, ptr %.3, i64 1
  br i1 %15, label %.critedge2, label %17, !llvm.loop !11

17:                                               ; preds = %.critedge2
  store ptr %.3, ptr %0, align 8
  ret i32 %.018
}